target datalayout = "e-m:e-p270:32:32-p271:32:32-p272:64:64-i64:64-i128:128-f80:128-n8:16:32:64-S128"
target triple = "x86_64-pc-linux-gnu"

%class.QToolBar = type { %class.QWidget }
%class.QWidget = type { %class.QObject, %class.QPaintDevice, ptr }
%class.QObject = type { ptr, %class.QScopedPointer }
%class.QScopedPointer = type { ptr }
%class.QPaintDevice = type { ptr, i16, ptr }
%class.QFrame = type { %class.QWidget }
%class.MLRenderingParametersFrame.base = type <{ %class.QFrame, i32 }>
%class.MLRenderingOnOffToolbar = type { %class.QToolBar, i32, ptr, ptr, ptr }
%class.MLRenderingWireParametersFrame = type { %class.MLRenderingParametersFrame.base, ptr, ptr, ptr, ptr, ptr, ptr, ptr }
%class.MLRenderingFloatSlider = type <{ %class.MLFloatSlider, ptr, i32, [4 x i8] }>
%class.MLFloatSlider = type { %class.QSlider }
%class.QSlider = type { %class.QAbstractSlider }
%class.QAbstractSlider = type { %class.QWidget }
%class.MLRenderingFloatAction = type <{ %class.MLRenderingAction, float, [4 x i8] }>
%class.MLRenderingAction = type { %class.QAction }
%class.QAction = type { %class.QObject }

; Function Attrs: mustprogress nounwind uwtable
define linkonce_odr void @_ZN22MLRenderingFloatAction8setValueEf(ptr noundef nonnull align 8 dereferenceable(20) %0, float noundef %1) #4 comdat align 2 {
  %3 = alloca ptr, align 8
  %4 = alloca float, align 4
  store ptr %0, ptr %3, align 8
  store float %1, ptr %4, align 4
  %5 = load ptr, ptr %3, align 8
  %6 = load float, ptr %4, align 4
  %7 = getelementptr inbounds %class.MLRenderingFloatAction, ptr %5, i32 0, i32 1
  store float %6, ptr %7, align 8
  ret void
}

; Function Attrs: mustprogress uwtable
define void @_ZN22MLRenderingFloatSlider27setAccordingToRenderingDataERK15MLRenderingData(ptr noundef nonnull align 8 dereferenceable(60) %0, ptr noundef nonnull align 8 dereferenceable(40) %1) #5 align 2 {
  %3 = alloca ptr, align 8
  %4 = alloca ptr, align 8
  %5 = alloca float, align 4
  store ptr %0, ptr %3, align 8
  store ptr %1, ptr %4, align 8
  %6 = load ptr, ptr %3, align 8
  %7 = getelementptr inbounds %class.MLRenderingFloatSlider, ptr %6, i32 0, i32 1
  %8 = load ptr, ptr %7, align 8
  %9 = icmp ne ptr %8, null
  br i1 %9, label %10, label %22

10:                                               ; preds = %2
  %11 = getelementptr inbounds %class.MLRenderingFloatSlider, ptr %6, i32 0, i32 1
  %12 = load ptr, ptr %11, align 8
  %13 = load ptr, ptr %4, align 8
  %14 = load ptr, ptr %12, align 8
  %15 = getelementptr inbounds ptr, ptr %14, i64 17
  %16 = load ptr, ptr %15, align 8
  %17 = call noundef float %16(ptr noundef nonnull align 8 dereferenceable(20) %12, ptr noundef nonnull align 8 dereferenceable(40) %13)
  store float %17, ptr %5, align 4
  %18 = load float, ptr %5, align 4
  call void @_ZN13MLFloatSlider8setValueEf(ptr noundef nonnull align 8 dereferenceable(48) %6, float noundef %18)
  %19 = getelementptr inbounds %class.MLRenderingFloatSlider, ptr %6, i32 0, i32 1
  %20 = load ptr, ptr %19, align 8
  %21 = load float, ptr %5, align 4
  call void @_ZN22MLRenderingFloatAction8setValueEf(ptr noundef nonnull align 8 dereferenceable(20) %20, float noundef %21)
  br label %22

22:                                               ; preds = %10, %2
  ret void
}

; Function Attrs: mustprogress uwtable
define void @_ZN23MLRenderingOnOffToolbar27setAccordingToRenderingDataERK15MLRenderingData(ptr noundef nonnull align 8 dereferenceable(80) %0, ptr noundef nonnull align 8 dereferenceable(40) %1) #5 align 2 {
  %3 = alloca ptr, align 8
  %4 = alloca ptr, align 8
  store ptr %0, ptr %3, align 8
  store ptr %1, ptr %4, align 8
  %5 = load ptr, ptr %3, align 8
  %6 = getelementptr inbounds %class.MLRenderingOnOffToolbar, ptr %5, i32 0, i32 3
  %7 = load ptr, ptr %6, align 8
  %8 = getelementptr inbounds %class.MLRenderingOnOffToolbar, ptr %5, i32 0, i32 2
  %9 = load ptr, ptr %8, align 8
  %10 = load ptr, ptr %4, align 8
  %11 = load ptr, ptr %9, align 8
  %12 = getelementptr inbounds ptr, ptr %11, i64 14
  %13 = load ptr, ptr %12, align 8
  %14 = call noundef zeroext i1 %13(ptr noundef nonnull align 8 dereferenceable(16) %9, ptr noundef nonnull align 8 dereferenceable(40) %10)
  call void @_ZN7QAction10setCheckedEb(ptr noundef nonnull align 8 dereferenceable(16) %7, i1 noundef zeroext %14)
  %15 = getelementptr inbounds %class.MLRenderingOnOffToolbar, ptr %5, i32 0, i32 4
  %16 = load ptr, ptr %15, align 8
  %17 = getelementptr inbounds %class.MLRenderingOnOffToolbar, ptr %5, i32 0, i32 2
  %18 = load ptr, ptr %17, align 8
  %19 = load ptr, ptr %4, align 8
  %20 = load ptr, ptr %18, align 8
  %21 = getelementptr inbounds ptr, ptr %20, i64 14
  %22 = load ptr, ptr %21, align 8
  %23 = call noundef zeroext i1 %22(ptr noundef nonnull align 8 dereferenceable(16) %18, ptr noundef nonnull align 8 dereferenceable(40) %19)
  %24 = xor i1 %23, true
  call void @_ZN7QAction10setCheckedEb(ptr noundef nonnull align 8 dereferenceable(16) %16, i1 noundef zeroext %24)
  ret void
}

; Function Attrs: mustprogress uwtable
define void @_ZN30MLRenderingWireParametersFrame48setPrimitiveButtonStatesAccordingToRenderingDataERK15MLRenderingData(ptr noundef nonnull align 8 dereferenceable(112) %0, ptr noundef nonnull align 8 dereferenceable(40) %1) unnamed_addr #5 align 2 {
  %3 = alloca ptr, align 8
  %4 = alloca ptr, align 8
  store ptr %0, ptr %3, align 8
  store ptr %1, ptr %4, align 8
  %5 = load ptr, ptr %3, align 8
  %6 = getelementptr inbounds %class.MLRenderingWireParametersFrame, ptr %5, i32 0, i32 2
  %7 = load ptr, ptr %6, align 8
  %8 = load ptr, ptr %4, align 8
  call void @_ZN18MLRenderingToolbar27setAccordingToRenderingDataERK15MLRenderingData(ptr noundef nonnull align 8 dereferenceable(96) %7, ptr noundef nonnull align 8 dereferenceable(40) %8)
  %9 = getelementptr inbounds %class.MLRenderingWireParametersFrame, ptr %5, i32 0, i32 4
  %10 = load ptr, ptr %9, align 8
  %11 = load ptr, ptr %4, align 8
  call void @_ZN18MLRenderingToolbar27setAccordingToRenderingDataERK15MLRenderingData(ptr noundef nonnull align 8 dereferenceable(96) %10, ptr noundef nonnull align 8 dereferenceable(40) %11)
  %12 = getelementptr inbounds %class.MLRenderingWireParametersFrame, ptr %5, i32 0, i32 6
  %13 = load ptr, ptr %12, align 8
  %14 = load ptr, ptr %4, align 8
  call void @_ZN23MLRenderingOnOffToolbar27setAccordingToRenderingDataERK15MLRenderingData(ptr noundef nonnull align 8 dereferenceable(80) %13, ptr noundef nonnull align 8 dereferenceable(40) %14)
  %15 = getelementptr inbounds %class.MLRenderingWireParametersFrame, ptr %5, i32 0, i32 7
  %16 = load ptr, ptr %15, align 8
  %17 = load ptr, ptr %4, align 8
  call void @_ZN22MLRenderingFloatSlider27setAccordingToRenderingDataERK15MLRenderingData(ptr noundef nonnull align 8 dereferenceable(60) %16, ptr noundef nonnull align 8 dereferenceable(40) %17)
  ret void
}