; Function Attrs: mustprogress uwtable
define void @_ZN30MLRenderingWireParametersFrame48setPrimitiveButtonStatesAccordingToRenderingDataERK15MLRenderingData(ptr nocapture noundef nonnull readonly align 8 dereferenceable(112) %0, ptr noundef nonnull align 8 dereferenceable(40) %1) unnamed_addr #3 align 2 {
  %3 = getelementptr inbounds i8, ptr %0, i64 64
  %4 = load ptr, ptr %3, align 8
  tail call void @_ZN18MLRenderingToolbar27setAccordingToRenderingDataERK15MLRenderingData(ptr noundef nonnull align 8 dereferenceable(96) %4, ptr noundef nonnull align 8 dereferenceable(40) %1)
  %5 = getelementptr inbounds i8, ptr %0, i64 80
  %6 = load ptr, ptr %5, align 8
  tail call void @_ZN18MLRenderingToolbar27setAccordingToRenderingDataERK15MLRenderingData(ptr noundef nonnull align 8 dereferenceable(96) %6, ptr noundef nonnull align 8 dereferenceable(40) %1)
  %7 = getelementptr inbounds i8, ptr %0, i64 96
  %8 = load ptr, ptr %7, align 8
  %9 = getelementptr inbounds i8, ptr %8, i64 64
  %10 = load ptr, ptr %9, align 8
  %11 = getelementptr inbounds i8, ptr %8, i64 56
  %12 = load ptr, ptr %11, align 8
  %13 = load ptr, ptr %12, align 8
  %14 = getelementptr inbounds i8, ptr %13, i64 112
  %15 = load ptr, ptr %14, align 8
  %16 = tail call noundef zeroext i1 %15(ptr noundef nonnull align 8 dereferenceable(16) %12, ptr noundef nonnull align 8 dereferenceable(40) %1)
  tail call void @_ZN7QAction10setCheckedEb(ptr noundef nonnull align 8 dereferenceable(16) %10, i1 noundef zeroext %16)
  %17 = getelementptr inbounds i8, ptr %8, i64 72
  %18 = load ptr, ptr %17, align 8
  %19 = load ptr, ptr %11, align 8
  %20 = load ptr, ptr %19, align 8
  %21 = getelementptr inbounds i8, ptr %20, i64 112
  %22 = load ptr, ptr %21, align 8
  %23 = tail call noundef zeroext i1 %22(ptr noundef nonnull align 8 dereferenceable(16) %19, ptr noundef nonnull align 8 dereferenceable(40) %1)
  %24 = xor i1 %23, true
  tail call void @_ZN7QAction10setCheckedEb(ptr noundef nonnull align 8 dereferenceable(16) %18, i1 noundef zeroext %24)
  %25 = getelementptr inbounds i8, ptr %0, i64 104
  %26 = load ptr, ptr %25, align 8
  %27 = getelementptr inbounds i8, ptr %26, i64 48
  %28 = load ptr, ptr %27, align 8
  %.not.i = icmp eq ptr %28, null
  br i1 %.not.i, label %_ZN22MLRenderingFloatSlider27setAccordingToRenderingDataERK15MLRenderingData.exit, label %29

29:                                               ; preds = %2
  %30 = load ptr, ptr %28, align 8
  %31 = getelementptr inbounds i8, ptr %30, i64 136
  %32 = load ptr, ptr %31, align 8
  %33 = tail call noundef float %32(ptr noundef nonnull align 8 dereferenceable(20) %28, ptr noundef nonnull align 8 dereferenceable(40) %1)
  tail call void @_ZN13MLFloatSlider8setValueEf(ptr noundef nonnull align 8 dereferenceable(48) %26, float noundef %33)
  %34 = load ptr, ptr %27, align 8
  %35 = getelementptr inbounds i8, ptr %34, i64 16
  store float %33, ptr %35, align 8
  br label %_ZN22MLRenderingFloatSlider27setAccordingToRenderingDataERK15MLRenderingData.exit

_ZN22MLRenderingFloatSlider27setAccordingToRenderingDataERK15MLRenderingData.exit: ; preds = %2, %29
  ret void
}